target datalayout = "e-m:e-p270:32:32-p271:32:32-p272:64:64-i64:64-i128:128-f80:128-n8:16:32:64-S128"
target triple = "x86_64-pc-linux-gnu"

; Function Attrs: nounwind uwtable
define internal void @filter_row8_serial(ptr noundef %0, ptr noundef %1, ptr noundef %2, i32 noundef %3, i32 noundef %4, i32 noundef %5, i32 noundef %6, i32 noundef %7, ptr noundef %8) #1 {
  %10 = alloca ptr, align 8
  %11 = alloca ptr, align 8
  %12 = alloca ptr, align 8
  %13 = alloca i32, align 4
  %14 = alloca i32, align 4
  %15 = alloca i32, align 4
  %16 = alloca i32, align 4
  %17 = alloca i32, align 4
  %18 = alloca ptr, align 8
  %19 = alloca ptr, align 8
  %20 = alloca ptr, align 8
  %21 = alloca ptr, align 8
  %22 = alloca i32, align 4
  %23 = alloca i32, align 4
  %24 = alloca i32, align 4
  %25 = alloca i32, align 4
  %26 = alloca i32, align 4
  %27 = alloca i32, align 4
  %28 = alloca i32, align 4
  %29 = alloca i32, align 4
  %30 = alloca i32, align 4
  %31 = alloca i32, align 4
  %32 = alloca i32, align 4
  %33 = alloca i32, align 4
  %34 = alloca i32, align 4
  %35 = alloca i32, align 4
  store ptr %0, ptr %10, align 8, !tbaa !31
  store ptr %1, ptr %11, align 8, !tbaa !31
  store ptr %2, ptr %12, align 8, !tbaa !85
  store i32 %3, ptr %13, align 4, !tbaa !32
  store i32 %4, ptr %14, align 4, !tbaa !32
  store i32 %5, ptr %15, align 4, !tbaa !32
  store i32 %6, ptr %16, align 4, !tbaa !32
  store i32 %7, ptr %17, align 4, !tbaa !32
  store ptr %8, ptr %18, align 8, !tbaa !83
  call void @llvm.lifetime.start.p0(i64 8, ptr %19) #9
  %36 = load ptr, ptr %10, align 8, !tbaa !31
  store ptr %36, ptr %19, align 8, !tbaa !31
  call void @llvm.lifetime.start.p0(i64 8, ptr %20) #9
  %37 = load ptr, ptr %12, align 8, !tbaa !85
  store ptr %37, ptr %20, align 8, !tbaa !85
  call void @llvm.lifetime.start.p0(i64 8, ptr %21) #9
  %38 = load ptr, ptr %11, align 8, !tbaa !31
  store ptr %38, ptr %21, align 8, !tbaa !31
  call void @llvm.lifetime.start.p0(i64 4, ptr %22) #9
  store i32 0, ptr %22, align 4, !tbaa !32
  br label %39

39:                                               ; preds = %178, %9
  %40 = load i32, ptr %22, align 4, !tbaa !32
  %41 = load i32, ptr %13, align 4, !tbaa !32
  %42 = icmp slt i32 %40, %41
  br i1 %42, label %44, label %43

43:                                               ; preds = %39
  store i32 2, ptr %23, align 4
  call void @llvm.lifetime.end.p0(i64 4, ptr %22) #9
  br label %181

44:                                               ; preds = %39
  call void @llvm.lifetime.start.p0(i64 4, ptr %24) #9
  %45 = load ptr, ptr %19, align 8, !tbaa !31
  %46 = load i32, ptr %22, align 4, !tbaa !32
  %47 = sext i32 %46 to i64
  %48 = getelementptr inbounds i8, ptr %45, i64 %47
  %49 = load i8, ptr %48, align 1, !tbaa !94
  %50 = zext i8 %49 to i32
  store i32 %50, ptr %24, align 4, !tbaa !32
  call void @llvm.lifetime.start.p0(i64 4, ptr %25) #9
  store i32 0, ptr %25, align 4, !tbaa !32
  call void @llvm.lifetime.start.p0(i64 4, ptr %26) #9
  store i32 0, ptr %26, align 4, !tbaa !32
  call void @llvm.lifetime.start.p0(i64 4, ptr %27) #9
  call void @llvm.lifetime.start.p0(i64 4, ptr %28) #9
  call void @llvm.lifetime.start.p0(i64 4, ptr %29) #9
  %51 = load i32, ptr %24, align 4, !tbaa !32
  store i32 %51, ptr %29, align 4, !tbaa !32
  call void @llvm.lifetime.start.p0(i64 4, ptr %30) #9
  store i32 0, ptr %30, align 4, !tbaa !32
  call void @llvm.lifetime.start.p0(i64 4, ptr %31) #9
  store i32 0, ptr %31, align 4, !tbaa !32
  call void @llvm.lifetime.start.p0(i64 4, ptr %32) #9
  call void @llvm.lifetime.start.p0(i64 4, ptr %33) #9
  call void @llvm.lifetime.start.p0(i64 4, ptr %34) #9
  %52 = load i32, ptr %14, align 4, !tbaa !32
  %53 = sub nsw i32 %52, 1
  store i32 %53, ptr %34, align 4, !tbaa !32
  br label %54

54:                                               ; preds = %101, %44
  %55 = load i32, ptr %34, align 4, !tbaa !32
  %56 = icmp sge i32 %55, 0
  br i1 %56, label %58, label %57

57:                                               ; preds = %54
  store i32 5, ptr %23, align 4
  br label %104

58:                                               ; preds = %54
  %59 = load ptr, ptr %20, align 8, !tbaa !85
  %60 = load i32, ptr %34, align 4, !tbaa !32
  %61 = sext i32 %60 to i64
  %62 = getelementptr inbounds ptr, ptr %59, i64 %61
  %63 = load ptr, ptr %62, align 8, !tbaa !31
  %64 = load i32, ptr %22, align 4, !tbaa !32
  %65 = sext i32 %64 to i64
  %66 = getelementptr inbounds i8, ptr %63, i64 %65
  %67 = load i8, ptr %66, align 1, !tbaa !94
  %68 = zext i8 %67 to i32
  store i32 %68, ptr %32, align 4, !tbaa !32
  %69 = load i32, ptr %24, align 4, !tbaa !32
  %70 = load i32, ptr %32, align 4, !tbaa !32
  %71 = sub nsw i32 %69, %70
  %72 = icmp sge i32 %71, 0
  br i1 %72, label %73, label %77

73:                                               ; preds = %58
  %74 = load i32, ptr %24, align 4, !tbaa !32
  %75 = load i32, ptr %32, align 4, !tbaa !32
  %76 = sub nsw i32 %74, %75
  br label %82

77:                                               ; preds = %58
  %78 = load i32, ptr %24, align 4, !tbaa !32
  %79 = load i32, ptr %32, align 4, !tbaa !32
  %80 = sub nsw i32 %78, %79
  %81 = sub nsw i32 0, %80
  br label %82

82:                                               ; preds = %77, %73
  %83 = phi i32 [ %76, %73 ], [ %81, %77 ]
  store i32 %83, ptr %27, align 4, !tbaa !32
  %84 = load i32, ptr %27, align 4, !tbaa !32
  %85 = load i32, ptr %25, align 4, !tbaa !32
  %86 = add i32 %85, %84
  store i32 %86, ptr %25, align 4, !tbaa !32
  %87 = load i32, ptr %27, align 4, !tbaa !32
  %88 = load i32, ptr %16, align 4, !tbaa !32
  %89 = icmp ugt i32 %87, %88
  br i1 %89, label %94, label %90

90:                                               ; preds = %82
  %91 = load i32, ptr %25, align 4, !tbaa !32
  %92 = load i32, ptr %17, align 4, !tbaa !32
  %93 = icmp ugt i32 %91, %92
  br i1 %93, label %94, label %95

94:                                               ; preds = %90, %82
  store i32 5, ptr %23, align 4
  br label %104

95:                                               ; preds = %90
  %96 = load i32, ptr %30, align 4, !tbaa !32
  %97 = add nsw i32 %96, 1
  store i32 %97, ptr %30, align 4, !tbaa !32
  %98 = load i32, ptr %32, align 4, !tbaa !32
  %99 = load i32, ptr %29, align 4, !tbaa !32
  %100 = add i32 %99, %98
  store i32 %100, ptr %29, align 4, !tbaa !32
  br label %101

101:                                              ; preds = %95
  %102 = load i32, ptr %34, align 4, !tbaa !32
  %103 = add nsw i32 %102, -1
  store i32 %103, ptr %34, align 4, !tbaa !32
  br label %54, !llvm.loop !97

104:                                              ; preds = %94, %57
  call void @llvm.lifetime.end.p0(i64 4, ptr %34) #9
  br label %105

105:                                              ; preds = %104
  call void @llvm.lifetime.start.p0(i64 4, ptr %35) #9
  %106 = load i32, ptr %14, align 4, !tbaa !32
  %107 = add nsw i32 %106, 1
  store i32 %107, ptr %35, align 4, !tbaa !32
  br label %108

108:                                              ; preds = %156, %105
  %109 = load i32, ptr %35, align 4, !tbaa !32
  %110 = load i32, ptr %15, align 4, !tbaa !32
  %111 = icmp slt i32 %109, %110
  br i1 %111, label %113, label %112

112:                                              ; preds = %108
  store i32 8, ptr %23, align 4
  br label %159

113:                                              ; preds = %108
  %114 = load ptr, ptr %20, align 8, !tbaa !85
  %115 = load i32, ptr %35, align 4, !tbaa !32
  %116 = sext i32 %115 to i64
  %117 = getelementptr inbounds ptr, ptr %114, i64 %116
  %118 = load ptr, ptr %117, align 8, !tbaa !31
  %119 = load i32, ptr %22, align 4, !tbaa !32
  %120 = sext i32 %119 to i64
  %121 = getelementptr inbounds i8, ptr %118, i64 %120
  %122 = load i8, ptr %121, align 1, !tbaa !94
  %123 = zext i8 %122 to i32
  store i32 %123, ptr %33, align 4, !tbaa !32
  %124 = load i32, ptr %24, align 4, !tbaa !32
  %125 = load i32, ptr %33, align 4, !tbaa !32
  %126 = sub nsw i32 %124, %125
  %127 = icmp sge i32 %126, 0
  br i1 %127, label %128, label %132

128:                                              ; preds = %113
  %129 = load i32, ptr %24, align 4, !tbaa !32
  %130 = load i32, ptr %33, align 4, !tbaa !32
  %131 = sub nsw i32 %129, %130
  br label %137

132:                                              ; preds = %113
  %133 = load i32, ptr %24, align 4, !tbaa !32
  %134 = load i32, ptr %33, align 4, !tbaa !32
  %135 = sub nsw i32 %133, %134
  %136 = sub nsw i32 0, %135
  br label %137

137:                                              ; preds = %132, %128
  %138 = phi i32 [ %131, %128 ], [ %136, %132 ]
  store i32 %138, ptr %28, align 4, !tbaa !32
  %139 = load i32, ptr %28, align 4, !tbaa !32
  %140 = load i32, ptr %26, align 4, !tbaa !32
  %141 = add i32 %140, %139
  store i32 %141, ptr %26, align 4, !tbaa !32
  %142 = load i32, ptr %28, align 4, !tbaa !32
  %143 = load i32, ptr %16, align 4, !tbaa !32
  %144 = icmp ugt i32 %142, %143
  br i1 %144, label %149, label %145

145:                                              ; preds = %137
  %146 = load i32, ptr %26, align 4, !tbaa !32
  %147 = load i32, ptr %17, align 4, !tbaa !32
  %148 = icmp ugt i32 %146, %147
  br i1 %148, label %149, label %150

149:                                              ; preds = %145, %137
  store i32 8, ptr %23, align 4
  br label %159

150:                                              ; preds = %145
  %151 = load i32, ptr %31, align 4, !tbaa !32
  %152 = add nsw i32 %151, 1
  store i32 %152, ptr %31, align 4, !tbaa !32
  %153 = load i32, ptr %33, align 4, !tbaa !32
  %154 = load i32, ptr %29, align 4, !tbaa !32
  %155 = add i32 %154, %153
  store i32 %155, ptr %29, align 4, !tbaa !32
  br label %156

156:                                              ; preds = %150
  %157 = load i32, ptr %35, align 4, !tbaa !32
  %158 = add nsw i32 %157, 1
  store i32 %158, ptr %35, align 4, !tbaa !32
  br label %108, !llvm.loop !98

159:                                              ; preds = %149, %112
  call void @llvm.lifetime.end.p0(i64 4, ptr %35) #9
  br label %160

160:                                              ; preds = %159
  %161 = load i32, ptr %29, align 4, !tbaa !32
  %162 = load i32, ptr %31, align 4, !tbaa !32
  %163 = load i32, ptr %30, align 4, !tbaa !32
  %164 = add nsw i32 %162, %163
  %165 = add nsw i32 %164, 1
  %166 = ashr i32 %165, 1
  %167 = add i32 %161, %166
  %168 = load i32, ptr %31, align 4, !tbaa !32
  %169 = load i32, ptr %30, align 4, !tbaa !32
  %170 = add nsw i32 %168, %169
  %171 = add nsw i32 %170, 1
  %172 = udiv i32 %167, %171
  %173 = trunc i32 %172 to i8
  %174 = load ptr, ptr %21, align 8, !tbaa !31
  %175 = load i32, ptr %22, align 4, !tbaa !32
  %176 = sext i32 %175 to i64
  %177 = getelementptr inbounds i8, ptr %174, i64 %176
  store i8 %173, ptr %177, align 1, !tbaa !94
  call void @llvm.lifetime.end.p0(i64 4, ptr %33) #9
  call void @llvm.lifetime.end.p0(i64 4, ptr %32) #9
  call void @llvm.lifetime.end.p0(i64 4, ptr %31) #9
  call void @llvm.lifetime.end.p0(i64 4, ptr %30) #9
  call void @llvm.lifetime.end.p0(i64 4, ptr %29) #9
  call void @llvm.lifetime.end.p0(i64 4, ptr %28) #9
  call void @llvm.lifetime.end.p0(i64 4, ptr %27) #9
  call void @llvm.lifetime.end.p0(i64 4, ptr %26) #9
  call void @llvm.lifetime.end.p0(i64 4, ptr %25) #9
  call void @llvm.lifetime.end.p0(i64 4, ptr %24) #9
  br label %178

178:                                              ; preds = %160
  %179 = load i32, ptr %22, align 4, !tbaa !32
  %180 = add nsw i32 %179, 1
  store i32 %180, ptr %22, align 4, !tbaa !32
  br label %39, !llvm.loop !99

181:                                              ; preds = %43
  call void @llvm.lifetime.end.p0(i64 8, ptr %21) #9
  call void @llvm.lifetime.end.p0(i64 8, ptr %20) #9
  call void @llvm.lifetime.end.p0(i64 8, ptr %19) #9
  ret void
}